; Function Attrs: mustprogress nounwind uwtable
define dso_local void @_ZN4llvm14GlobalVariable17dropAllReferencesEv(ptr noundef nonnull align 8 dereferenceable(81) %0) local_unnamed_addr #1 align 2 {
  %2 = getelementptr inbounds nuw i8, ptr %0, i64 4
  %3 = load i32, ptr %2, align 4
  %4 = and i32 %3, 1073741824
  %.not.i.i.i.i.i = icmp eq i32 %4, 0
  br i1 %.not.i.i.i.i.i, label %8, label %5

5:                                                ; preds = %1
  %6 = getelementptr inbounds i8, ptr %0, i64 -8
  %7 = load ptr, ptr %6, align 8
  %.pre.i.i.i = and i32 %3, 134217727
  %.pre1.i.i.i = zext nneg i32 %.pre.i.i.i to i64
  br label %_ZN4llvm4User8operandsEv.exit.i

8:                                                ; preds = %1
  %9 = and i32 %3, 134217727
  %10 = zext nneg i32 %9 to i64
  %11 = sub nsw i64 0, %10
  %12 = getelementptr inbounds %"class.llvm::Use", ptr %0, i64 %11
  br label %_ZN4llvm4User8operandsEv.exit.i

_ZN4llvm4User8operandsEv.exit.i:                  ; preds = %8, %5
  %13 = phi ptr [ %7, %5 ], [ %12, %8 ]
  %.pre-phi2.i.i.i = phi i64 [ %.pre1.i.i.i, %5 ], [ %10, %8 ]
  %14 = getelementptr inbounds %"class.llvm::Use", ptr %13, i64 %.pre-phi2.i.i.i
  %.not8.i = icmp eq i64 %.pre-phi2.i.i.i, 0
  br i1 %.not8.i, label %_ZN4llvm4User17dropAllReferencesEv.exit, label %.lr.ph.i

.lr.ph.i:                                         ; preds = %_ZN4llvm4User8operandsEv.exit.i, %_ZN4llvm3Use3setEPNS_5ValueE.exit.i
  %.09.i = phi ptr [ %24, %_ZN4llvm3Use3setEPNS_5ValueE.exit.i ], [ %13, %_ZN4llvm4User8operandsEv.exit.i ]
  %15 = load ptr, ptr %.09.i, align 8
  %.not.i.i = icmp eq ptr %15, null
  br i1 %.not.i.i, label %_ZN4llvm3Use3setEPNS_5ValueE.exit.i, label %16

16:                                               ; preds = %.lr.ph.i
  %17 = getelementptr inbounds nuw i8, ptr %.09.i, i64 8
  %18 = load ptr, ptr %17, align 8
  %19 = getelementptr inbounds nuw i8, ptr %.09.i, i64 16
  %20 = load ptr, ptr %19, align 8
  store ptr %18, ptr %20, align 8
  %.not.i.i.i = icmp eq ptr %18, null
  br i1 %.not.i.i.i, label %_ZN4llvm3Use3setEPNS_5ValueE.exit.i, label %21

21:                                               ; preds = %16
  %22 = load ptr, ptr %19, align 8
  %23 = getelementptr inbounds nuw i8, ptr %18, i64 16
  store ptr %22, ptr %23, align 8
  br label %_ZN4llvm3Use3setEPNS_5ValueE.exit.i

_ZN4llvm3Use3setEPNS_5ValueE.exit.i:              ; preds = %21, %16, %.lr.ph.i
  store ptr null, ptr %.09.i, align 8
  %24 = getelementptr inbounds i8, ptr %.09.i, i64 32
  %.not.i = icmp eq ptr %24, %14
  br i1 %.not.i, label %_ZN4llvm4User17dropAllReferencesEv.exit, label %.lr.ph.i

_ZN4llvm4User17dropAllReferencesEv.exit:          ; preds = %_ZN4llvm3Use3setEPNS_5ValueE.exit.i, %_ZN4llvm4User8operandsEv.exit.i
  tail call void @_ZN4llvm5Value13clearMetadataEv(ptr noundef nonnull align 8 dereferenceable(24) %0) #12
  ret void
}